Certificate:
    Data:
        Version: 3 (0x2)
        Serial Number:
            ff:30:3a:e4:e9:0a:c1:ed
        Signature Algorithm: sha1WithRSAEncryption
        Issuer: CN=Co quan chung thuc so chuyen dung Chinh phu (RootCA),O=Ban Co yeu Chinh phu,C=VN
        Validity
            Not Before: Mar 10 05:45:57 2010 GMT
            Not After : Mar  5 05:45:57 2030 GMT
        Subject: CN=Co quan chung thuc so chuyen dung Chinh phu (RootCA),O=Ban Co yeu Chinh phu,C=VN
        Subject Public Key Info:
            Public Key Algorithm: rsaEncryption
            RSA Public Key: (2048 bit)
                Modulus (2048 bit):
                    00:da:f3:bd:ec:64:be:0b:a5:e1:d4:54:9d:5e:86:
                    31:cb:cb:75:e9:ca:ae:bc:d8:9d:5a:73:22:9e:fc:
                    8a:30:4c:a9:67:06:f9:cb:be:00:94:b6:19:ba:98:
                    75:bb:0e:e8:99:da:34:b4:b1:bb:1a:4c:ed:47:a3:
                    8b:08:b6:40:14:de:d8:d5:c8:cb:84:ed:91:a7:5b:
                    22:33:e5:40:75:08:7a:d4:d8:78:b4:c4:49:4c:34:
                    bc:e1:2e:c2:d0:0c:d8:f5:66:a1:2a:5d:10:f1:70:
                    e2:8d:3a:13:7f:cc:0a:d8:8c:d1:f4:91:bb:2c:97:
                    33:cb:ae:d0:4c:98:a9:4a:30:14:96:c4:0c:44:6a:
                    aa:53:de:53:4a:24:ba:db:20:cd:41:6d:66:41:bf:
                    4c:ce:96:13:de:c5:31:b0:38:28:2e:6c:b7:11:bc:
                    48:70:9e:e1:81:4d:ad:02:1a:33:c3:b3:7a:67:75:
                    d4:c2:09:69:21:d2:be:bb:fe:11:64:75:4c:37:a0:
                    d3:65:35:f2:a0:77:6a:26:9a:99:25:f6:33:b0:77:
                    24:c2:9e:74:ea:01:a3:55:10:90:b7:3f:78:fa:86:
                    da:42:87:55:b7:36:a7:59:9e:3d:7e:67:d5:eb:42:
                    a4:ce:be:45:48:e9:ce:f7:64:72:28:71:c4:05:23:
                    24:07
                Exponent: 65537 (0x10001)
        X509v3 extensions:
            X509v3 Basic Constraints: critical
                CA:TRUE
            X509v3 Subject Key Identifier: 
                D9:17:1B:51:A3:17:B7:9E:FC:2D:DB:61:FA:79:00:FF:58:74:9D:5C
            X509v3 Authority Key Identifier: 
                keyid:D9:17:1B:51:A3:17:B7:9E:FC:2D:DB:61:FA:79:00:FF:58:74:9D:5C

            X509v3 Key Usage: critical
                Certificate Sign, CRL Sign
            X509v3 CRL Distribution Points: 
                URI:http://ca.gov.vn/pki/pub/crl/rootca.crl

    Signature Algorithm: sha1WithRSAEncryption
        1b:8a:fa:6f:86:d0:b7:c3:ff:60:58:08:77:e1:4a:2f:1a:e4:
        94:c0:50:d0:39:c9:94:4c:4c:61:84:98:80:0c:8d:7c:13:8f:
        56:05:37:8d:d6:20:bb:a1:98:5b:d5:a1:51:43:35:bd:7b:a3:
        4d:82:44:ab:0b:2e:69:8a:4d:60:91:d3:ad:80:1f:aa:c7:66:
        f7:b3:d0:82:8f:c5:4d:cb:09:40:0c:7f:73:88:c9:97:3e:0c:
        89:2e:fd:27:f5:3a:81:8f:bc:93:59:3f:39:61:ce:3d:7a:bd:
        27:b0:37:6f:c5:20:6a:94:98:a2:bb:f4:86:0f:a6:4c:75:af:
        e6:ce:d2:67:92:bb:5e:4c:09:1a:db:3c:36:8b:8e:ab:73:04:
        d2:51:18:f2:60:42:5f:a6:3f:e3:a3:11:1c:0a:a0:2e:6d:7c:
        08:76:d7:8d:5a:33:21:cf:4e:cc:ac:f5:c3:6b:b3:86:76:7e:
        e9:a4:ba:59:10:81:e6:48:26:51:f9:42:c8:2e:da:dd:dd:c4:
        c3:03:34:65:20:ff:5b:37:38:35:c1:cd:1b:7f:82:18:f4:4a:
        d5:15:90:0f:96:7c:7a:c3:1c:48:20:e5:a9:f8:90:51:a5:fd:
        53:88:ab:bb:dd:0f:7d:d0:f9:9c:a6:4f:76:6c:09:3a:f3:2d:
        b4:c5:12:25
-----BEGIN CERTIFICATE-----
MIID+DCCAuCgAwIBAgIJAP8wOuTpCsHtMA0GCSqGSIb3DQEBBQUAMGsxCzAJBgNV
BAYTAlZOMR0wGwYDVQQKDBRCYW4gQ28geWV1IENoaW5oIHBodTE9MDsGA1UEAww0
Q28gcXVhbiBjaHVuZyB0aHVjIHNvIGNodXllbiBkdW5nIENoaW5oIHBodSAoUm9v
dENBKTAeFw0xMDAzMTAwNTQ1NTdaFw0zMDAzMDUwNTQ1NTdaMGsxCzAJBgNVBAYT
AlZOMR0wGwYDVQQKDBRCYW4gQ28geWV1IENoaW5oIHBodTE9MDsGA1UEAww0Q28g
cXVhbiBjaHVuZyB0aHVjIHNvIGNodXllbiBkdW5nIENoaW5oIHBodSAoUm9vdENB
KTCCASIwDQYJKoZIhvcNAQEBBQADggEPADCCAQoCggEBANrzvexkvgul4dRUnV6G
McvLdenKrrzYnVpzIp78ijBMqWcG+cu+AJS2GbqYdbsO6JnaNLSxuxpM7Uejiwi2
QBTe2NXIy4TtkadbIjPlQHUIetTYeLTESUw0vOEuwtAM2PVmoSpdEPFw4o06E3/M
CtiM0fSRuyyXM8uu0EyYqUowFJbEDERqqlPeU0okutsgzUFtZkG/TM6WE97FMbA4
KC5stxG8SHCe4YFNrQIaM8Ozemd11MIJaSHSvrv+EWR1TDeg02U18qB3aiaamSX2
M7B3JMKedOoBo1UQkLc/ePqG2kKHVbc2p1mePX5n1etCpM6+RUjpzvdkcihxxAUj
JAcCAwEAAaOBnjCBmzAPBgNVHRMBAf8EBTADAQH/MB0GA1UdDgQWBBTZFxtRoxe3
nvwt22H6eQD/WHSdXDAfBgNVHSMEGDAWgBTZFxtRoxe3nvwt22H6eQD/WHSdXDAO
BgNVHQ8BAf8EBAMCAQYwOAYDVR0fBDEwLzAtoCugKYYnaHR0cDovL2NhLmdvdi52
bi9wa2kvcHViL2NybC9yb290Y2EuY3JsMA0GCSqGSIb3DQEBBQUAA4IBAQAbivpv
htC3w/9gWAh34UovGuSUwFDQOcmUTExhhJiADI18E49WBTeN1iC7oZhb1aFRQzW9
e6NNgkSrCy5pik1gkdOtgB+qx2b3s9CCj8VNywlADH9ziMmXPgyJLv0n9TqBj7yT
WT85Yc49er0nsDdvxSBqlJiiu/SGD6ZMda/mztJnkrteTAka2zw2i46rcwTSURjy
YEJfpj/joxEcCqAubXwIdteNWjMhz07MrPXDa7OGdn7ppLpZEIHmSCZR+ULILtrd
3cTDAzRlIP9bNzg1wc0bf4IY9ErVFZAPlnx6wxxIIOWp+JBRpf1TiKu73Q990Pmc
pk92bAk68y20xRIl
-----END CERTIFICATE-----

